(dp0
Vengine
p1
Vlualatex
p2
sVpackages
p3
c__builtin__
set
p4
((lp5
Vcolor
p6
aVksgstyle
p7
aVlistings
p8
aVgraphicx
p9
atp10
Rp11
sVfiles_with_guttermarks
p12
g4
((lp13
S'SOFIAnalysisSoftwareManual.tex'
p14
atp15
Rp16
sVsynctex
p17
I01
s.